ccopy_reg
_reconstructor
p0
(csklearn.preprocessing.label
LabelBinarizer
p1
c__builtin__
object
p2
Ntp3
Rp4
(dp5
S'neg_label'
p6
I0
sS'sparse_input_'
p7
I00
sS'sparse_output'
p8
I00
sS'classes_'
p9
cnumpy.core.multiarray
_reconstruct
p10
(cnumpy
ndarray
p11
(I0
tp12
S'b'
p13
tp14
Rp15
(I1
(I26
tp16
cnumpy
dtype
p17
(S'S9'
p18
I0
I1
tp19
Rp20
(I3
S'|'
p21
NNNI9
I1
I0
tp22
bI00
S'Sample001Sample002Sample003Sample004Sample005Sample006Sample007Sample008Sample009Sample010Sample011Sample012Sample013Sample014Sample015Sample016Sample017Sample018Sample019Sample020Sample021Sample022Sample023Sample024Sample025Sample026'
p23
tp24
bsS'y_type_'
p25
S'multiclass'
p26
sS'pos_label'
p27
I1
sS'_sklearn_version'
p28
S'0.20.0'
p29
sb.